; Function Attrs: nounwind uwtable
define zeroext i16 @lv_font_get_glyph_width(ptr noundef %0, i32 noundef %1, i32 noundef %2) local_unnamed_addr #0 {
  %4 = alloca %struct.lv_font_glyph_dsc_t, align 8
  %.not = icmp eq ptr %0, null
  br i1 %.not, label %.preheader, label %5

.preheader:                                       ; preds = %3, %.preheader
  br label %.preheader

5:                                                ; preds = %3
  call void @llvm.lifetime.start.p0(i64 48, ptr nonnull %4) #5
  %6 = icmp ult i32 %1, 32
  br i1 %6, label %lv_text_is_marker.exit.thread, label %7

7:                                                ; preds = %5
  switch i32 %1, label %8 [
    i32 1564, label %lv_text_is_marker.exit.thread
    i32 4447, label %lv_text_is_marker.exit.thread
    i32 4448, label %lv_text_is_marker.exit.thread
  ]

8:                                                ; preds = %7
  %9 = add i32 %1, -6155
  %or.cond.i = icmp ult i32 %9, 4
  %10 = add i32 %1, -8203
  %or.cond3.i = icmp ult i32 %10, 5
  %or.cond22.i = or i1 %or.cond.i, %or.cond3.i
  %11 = and i32 %1, -8
  %or.cond5.i = icmp eq i32 %11, 8232
  %or.cond23.i = or i1 %or.cond5.i, %or.cond22.i
  %12 = add i32 %1, -8287
  %or.cond7.i = icmp ult i32 %12, 17
  %or.cond24.i = or i1 %or.cond7.i, %or.cond23.i
  br i1 %or.cond24.i, label %lv_text_is_marker.exit.thread, label %lv_text_is_marker.exit

lv_text_is_marker.exit:                           ; preds = %8
  switch i32 %1, label %13 [
    i32 65279, label %lv_text_is_marker.exit.thread
    i32 63743, label %lv_text_is_marker.exit.thread
  ]

13:                                               ; preds = %lv_text_is_marker.exit
  store ptr null, ptr %4, align 8, !tbaa !3
  %14 = getelementptr inbounds nuw i8, ptr %4, i64 24
  store i8 0, ptr %14, align 8
  br label %15

15:                                               ; preds = %27, %13
  %.04161.i = phi ptr [ %0, %13 ], [ %29, %27 ]
  %.04360.i = phi ptr [ null, %13 ], [ %.144.i, %27 ]
  %16 = load ptr, ptr %.04161.i, align 8, !tbaa !15
  %17 = getelementptr inbounds nuw i8, ptr %.04161.i, i64 32
  %18 = load i8, ptr %17, align 8
  %19 = and i8 %18, 4
  %.not52.i = icmp eq i8 %19, 0
  %20 = select i1 %.not52.i, i32 %2, i32 0
  %21 = call zeroext i1 %16(ptr noundef nonnull %.04161.i, ptr noundef nonnull %4, i32 noundef %1, i32 noundef %20) #5
  br i1 %21, label %22, label %27

22:                                               ; preds = %15
  %23 = load i8, ptr %14, align 8
  %24 = and i8 %23, 1
  %.not53.i = icmp eq i8 %24, 0
  br i1 %.not53.i, label %lv_font_get_glyph_dsc.exit, label %25

25:                                               ; preds = %22
  %26 = icmp eq ptr %.04360.i, null
  %spec.select.i = select i1 %26, ptr %.04161.i, ptr %.04360.i
  br label %27

27:                                               ; preds = %25, %15
  %.144.i = phi ptr [ %.04360.i, %15 ], [ %spec.select.i, %25 ]
  %28 = getelementptr inbounds nuw i8, ptr %.04161.i, i64 48
  %29 = load ptr, ptr %28, align 8, !tbaa !16
  %.not49.i = icmp eq ptr %29, null
  br i1 %.not49.i, label %30, label %15, !llvm.loop !17

30:                                               ; preds = %27
  %.not50.i = icmp eq ptr %.144.i, null
  br i1 %.not50.i, label %38, label %31

31:                                               ; preds = %30
  %32 = load ptr, ptr %.144.i, align 8, !tbaa !15
  %33 = getelementptr inbounds nuw i8, ptr %.144.i, i64 32
  %34 = load i8, ptr %33, align 8
  %35 = and i8 %34, 4
  %.not51.i = icmp eq i8 %35, 0
  %36 = select i1 %.not51.i, i32 %2, i32 0
  %37 = call zeroext i1 %32(ptr noundef nonnull %.144.i, ptr noundef nonnull %4, i32 noundef %1, i32 noundef %36) #5
  br label %lv_font_get_glyph_dsc.exit

38:                                               ; preds = %30
  %39 = getelementptr inbounds nuw i8, ptr %0, i64 24
  %40 = load i32, ptr %39, align 8, !tbaa !19
  %41 = sdiv i32 %40, 2
  %42 = trunc i32 %41 to i16
  %43 = add i16 %42, 2
  %44 = getelementptr inbounds nuw i8, ptr %4, i64 8
  store i16 %43, ptr %44, align 8, !tbaa !21
  br label %lv_font_get_glyph_dsc.exit

lv_font_get_glyph_dsc.exit:                       ; preds = %22, %31, %38
  %45 = getelementptr inbounds nuw i8, ptr %4, i64 8
  %46 = load i16, ptr %45, align 8, !tbaa !21
  br label %lv_text_is_marker.exit.thread

lv_text_is_marker.exit.thread:                    ; preds = %lv_text_is_marker.exit, %lv_text_is_marker.exit, %8, %7, %7, %7, %5, %lv_font_get_glyph_dsc.exit
  %.0 = phi i16 [ %46, %lv_font_get_glyph_dsc.exit ], [ 0, %lv_text_is_marker.exit ], [ 0, %5 ], [ 0, %7 ], [ 0, %7 ], [ 0, %7 ], [ 0, %8 ], [ 0, %lv_text_is_marker.exit ]
  call void @llvm.lifetime.end.p0(i64 48, ptr nonnull %4) #5
  ret i16 %.0
}